target datalayout = "e-m:e-p270:32:32-p271:32:32-p272:64:64-i64:64-i128:128-f80:128-n8:16:32:64-S128"
target triple = "x86_64-pc-linux-gnu"

%struct.H5O_t = type { %struct.H5C_cache_entry_t, i64, i64, i8, i64, i8, i32, i8, i8, i64, i64, i64, i64, i32, i32, i64, i64, ptr, i64, i64, i64, i64, ptr, i8, ptr }
%struct.H5C_cache_entry_t = type { ptr, i64, i64, ptr, i8, ptr, i8, i8, i8, i8, i32, i8, i8, i8, i8, i8, i32, ptr, i32, i32, i32, i32, i32, i8, i8, ptr, ptr, ptr, ptr, ptr, ptr, i8, i32, i8, i64, ptr, i64, i64, i32, i8, i32, i32, i8, ptr, ptr, ptr }
%struct.H5O_ainfo_t = type { i8, i8, i32, i64, i64, i64, i64 }

@.str.3 = private unnamed_addr constant [100 x i8] c"generated/home/dtcxzyw/WorkSpace/Projects/compilers/llvm-opt-benchmark/bench/hdf5/hdf5/src/H5Aint.c\00", align 1
@H5E_ATTR_g = external global i64, align 8
@H5E_NOTFOUND_g = external global i64, align 8
@H5E_CANTGET_g = external global i64, align 8
@H5E_CANTOPENOBJ_g = external global i64, align 8
@H5E_CLOSEERROR_g = external global i64, align 8
@.str.61 = private unnamed_addr constant [40 x i8] c"unable to open v2 B-tree for name index\00", align 1
@.str.62 = private unnamed_addr constant [37 x i8] c"can't retrieve # of records in index\00", align 1
@.str.63 = private unnamed_addr constant [37 x i8] c"can't close v2 B-tree for name index\00", align 1
@__func__.H5A__get_ainfo = private unnamed_addr constant [15 x i8] c"H5A__get_ainfo\00", align 1
@.str.68 = private unnamed_addr constant [30 x i8] c"unable to check object header\00", align 1
@.str.69 = private unnamed_addr constant [25 x i8] c"can't read AINFO message\00", align 1

; Function Attrs: nounwind uwtable
define i32 @H5A__get_ainfo(ptr noundef %0, ptr noundef %1, ptr noundef %2) #0 {
  %4 = alloca ptr, align 8
  %5 = alloca ptr, align 8
  %6 = alloca ptr, align 8
  %7 = alloca ptr, align 8
  %8 = alloca i32, align 4
  %9 = alloca i64, align 8
  %10 = alloca i8, align 1
  store ptr %0, ptr %4, align 8
  store ptr %1, ptr %5, align 8
  store ptr %2, ptr %6, align 8
  store ptr null, ptr %7, align 8
  store i32 -1, ptr %8, align 4
  store i64 -1, ptr %9, align 8
  store i8 0, ptr %10, align 1
  %11 = load ptr, ptr %5, align 8
  %12 = getelementptr inbounds %struct.H5O_t, ptr %11, i32 0, i32 0
  %13 = getelementptr inbounds %struct.H5C_cache_entry_t, ptr %12, i32 0, i32 1
  %14 = load i64, ptr %13, align 8
  call void @H5AC_tag(i64 noundef %14, ptr noundef %9)
  %15 = load ptr, ptr %5, align 8
  %16 = call i32 @H5O_msg_exists_oh(ptr noundef %15, i32 noundef 21)
  store i32 %16, ptr %8, align 4
  %17 = icmp slt i32 %16, 0
  br i1 %17, label %18, label %33

18:                                               ; preds = %3
  br label %19

19:                                               ; preds = %18
  br label %20

20:                                               ; preds = %19
  br label %21

21:                                               ; preds = %20
  %22 = load i64, ptr @H5E_ATTR_g, align 8
  %23 = load i64, ptr @H5E_NOTFOUND_g, align 8
  %24 = call i32 (ptr, ptr, i32, i64, i64, ptr, ...) @H5E_printf_stack(ptr noundef @.str.3, ptr noundef @__func__.H5A__get_ainfo, i32 noundef 1946, i64 noundef %22, i64 noundef %23, ptr noundef @.str.68)
  br label %25

25:                                               ; preds = %21
  store i8 1, ptr %10, align 1
  %26 = load i8, ptr %10, align 1
  %27 = trunc i8 %26 to i1
  %28 = zext i1 %27 to i8
  store i8 %28, ptr %10, align 1
  br label %29

29:                                               ; preds = %25
  br label %30

30:                                               ; preds = %29
  store i32 -1, ptr %8, align 4
  br label %120

31:                                               ; No predecessors!
  br label %32

32:                                               ; preds = %31
  br label %33

33:                                               ; preds = %32, %3
  %34 = load i32, ptr %8, align 4
  %35 = icmp sgt i32 %34, 0
  br i1 %35, label %36, label %119

36:                                               ; preds = %33
  %37 = load ptr, ptr %4, align 8
  %38 = load ptr, ptr %5, align 8
  %39 = load ptr, ptr %6, align 8
  %40 = call ptr @H5O_msg_read_oh(ptr noundef %37, ptr noundef %38, i32 noundef 21, ptr noundef %39)
  %41 = icmp eq ptr null, %40
  br i1 %41, label %42, label %57

42:                                               ; preds = %36
  br label %43

43:                                               ; preds = %42
  br label %44

44:                                               ; preds = %43
  br label %45

45:                                               ; preds = %44
  %46 = load i64, ptr @H5E_ATTR_g, align 8
  %47 = load i64, ptr @H5E_CANTGET_g, align 8
  %48 = call i32 (ptr, ptr, i32, i64, i64, ptr, ...) @H5E_printf_stack(ptr noundef @.str.3, ptr noundef @__func__.H5A__get_ainfo, i32 noundef 1950, i64 noundef %46, i64 noundef %47, ptr noundef @.str.69)
  br label %49

49:                                               ; preds = %45
  store i8 1, ptr %10, align 1
  %50 = load i8, ptr %10, align 1
  %51 = trunc i8 %50 to i1
  %52 = zext i1 %51 to i8
  store i8 %52, ptr %10, align 1
  br label %53

53:                                               ; preds = %49
  br label %54

54:                                               ; preds = %53
  store i32 -1, ptr %8, align 4
  br label %120

55:                                               ; No predecessors!
  br label %56

56:                                               ; preds = %55
  br label %57

57:                                               ; preds = %56, %36
  %58 = load ptr, ptr %6, align 8
  %59 = getelementptr inbounds %struct.H5O_ainfo_t, ptr %58, i32 0, i32 4
  %60 = load i64, ptr %59, align 8
  %61 = icmp eq i64 %60, -1
  br i1 %61, label %62, label %118

62:                                               ; preds = %57
  %63 = load ptr, ptr %6, align 8
  %64 = getelementptr inbounds %struct.H5O_ainfo_t, ptr %63, i32 0, i32 5
  %65 = load i64, ptr %64, align 8
  %66 = icmp ne i64 %65, -1
  br i1 %66, label %67, label %111

67:                                               ; preds = %62
  %68 = load ptr, ptr %4, align 8
  %69 = load ptr, ptr %6, align 8
  %70 = getelementptr inbounds %struct.H5O_ainfo_t, ptr %69, i32 0, i32 6
  %71 = load i64, ptr %70, align 8
  %72 = call ptr @H5B2_open(ptr noundef %68, i64 noundef %71, ptr noundef null)
  store ptr %72, ptr %7, align 8
  %73 = icmp eq ptr null, %72
  br i1 %73, label %74, label %89

74:                                               ; preds = %67
  br label %75

75:                                               ; preds = %74
  br label %76

76:                                               ; preds = %75
  br label %77

77:                                               ; preds = %76
  %78 = load i64, ptr @H5E_ATTR_g, align 8
  %79 = load i64, ptr @H5E_CANTOPENOBJ_g, align 8
  %80 = call i32 (ptr, ptr, i32, i64, i64, ptr, ...) @H5E_printf_stack(ptr noundef @.str.3, ptr noundef @__func__.H5A__get_ainfo, i32 noundef 1958, i64 noundef %78, i64 noundef %79, ptr noundef @.str.61)
  br label %81

81:                                               ; preds = %77
  store i8 1, ptr %10, align 1
  %82 = load i8, ptr %10, align 1
  %83 = trunc i8 %82 to i1
  %84 = zext i1 %83 to i8
  store i8 %84, ptr %10, align 1
  br label %85

85:                                               ; preds = %81
  br label %86

86:                                               ; preds = %85
  store i32 -1, ptr %8, align 4
  br label %120

87:                                               ; No predecessors!
  br label %88

88:                                               ; preds = %87
  br label %89

89:                                               ; preds = %88, %67
  %90 = load ptr, ptr %7, align 8
  %91 = load ptr, ptr %6, align 8
  %92 = getelementptr inbounds %struct.H5O_ainfo_t, ptr %91, i32 0, i32 4
  %93 = call i32 @H5B2_get_nrec(ptr noundef %90, ptr noundef %92)
  %94 = icmp slt i32 %93, 0
  br i1 %94, label %95, label %110

95:                                               ; preds = %89
  br label %96

96:                                               ; preds = %95
  br label %97

97:                                               ; preds = %96
  br label %98

98:                                               ; preds = %97
  %99 = load i64, ptr @H5E_ATTR_g, align 8
  %100 = load i64, ptr @H5E_CANTGET_g, align 8
  %101 = call i32 (ptr, ptr, i32, i64, i64, ptr, ...) @H5E_printf_stack(ptr noundef @.str.3, ptr noundef @__func__.H5A__get_ainfo, i32 noundef 1963, i64 noundef %99, i64 noundef %100, ptr noundef @.str.62)
  br label %102

102:                                              ; preds = %98
  store i8 1, ptr %10, align 1
  %103 = load i8, ptr %10, align 1
  %104 = trunc i8 %103 to i1
  %105 = zext i1 %104 to i8
  store i8 %105, ptr %10, align 1
  br label %106

106:                                              ; preds = %102
  br label %107

107:                                              ; preds = %106
  store i32 -1, ptr %8, align 4
  br label %120

108:                                              ; No predecessors!
  br label %109

109:                                              ; preds = %108
  br label %110

110:                                              ; preds = %109, %89
  br label %117

111:                                              ; preds = %62
  %112 = load ptr, ptr %5, align 8
  %113 = getelementptr inbounds %struct.H5O_t, ptr %112, i32 0, i32 19
  %114 = load i64, ptr %113, align 8
  %115 = load ptr, ptr %6, align 8
  %116 = getelementptr inbounds %struct.H5O_ainfo_t, ptr %115, i32 0, i32 4
  store i64 %114, ptr %116, align 8
  br label %117

117:                                              ; preds = %111, %110
  br label %118

118:                                              ; preds = %117, %57
  br label %119

119:                                              ; preds = %118, %33
  br label %120

120:                                              ; preds = %119, %107, %86, %54, %30
  %121 = load ptr, ptr %7, align 8
  %122 = icmp ne ptr %121, null
  br i1 %122, label %123, label %140

123:                                              ; preds = %120
  %124 = load ptr, ptr %7, align 8
  %125 = call i32 @H5B2_close(ptr noundef %124)
  %126 = icmp slt i32 %125, 0
  br i1 %126, label %127, label %140

127:                                              ; preds = %123
  br label %128

128:                                              ; preds = %127
  br label %129

129:                                              ; preds = %128
  br label %130

130:                                              ; preds = %129
  %131 = load i64, ptr @H5E_ATTR_g, align 8
  %132 = load i64, ptr @H5E_CLOSEERROR_g, align 8
  %133 = call i32 (ptr, ptr, i32, i64, i64, ptr, ...) @H5E_printf_stack(ptr noundef @.str.3, ptr noundef @__func__.H5A__get_ainfo, i32 noundef 1974, i64 noundef %131, i64 noundef %132, ptr noundef @.str.63)
  br label %134

134:                                              ; preds = %130
  store i8 1, ptr %10, align 1
  %135 = load i8, ptr %10, align 1
  %136 = trunc i8 %135 to i1
  %137 = zext i1 %136 to i8
  store i8 %137, ptr %10, align 1
  br label %138

138:                                              ; preds = %134
  store i32 -1, ptr %8, align 4
  br label %139

139:                                              ; preds = %138
  br label %140

140:                                              ; preds = %139, %123, %120
  %141 = load i64, ptr %9, align 8
  call void @H5AC_tag(i64 noundef %141, ptr noundef null)
  %142 = load i32, ptr %8, align 4
  ret i32 %142
}