; Function Attrs: nounwind uwtable
define range(i32 -1, -2147483648) i32 @H5A__get_ainfo(ptr noundef %0, ptr noundef %1, ptr noundef %2) local_unnamed_addr #0 {
  %4 = alloca i64, align 8
  store i64 -1, ptr %4, align 8
  %5 = getelementptr inbounds i8, ptr %1, i64 8
  %6 = load i64, ptr %5, align 8
  call void @H5AC_tag(i64 noundef %6, ptr noundef nonnull %4) #13
  %7 = call i32 @H5O_msg_exists_oh(ptr noundef %1, i32 noundef 21) #13
  %8 = icmp slt i32 %7, 0
  br i1 %8, label %9, label %13

9:                                                ; preds = %3
  %10 = load i64, ptr @H5E_ATTR_g, align 8
  %11 = load i64, ptr @H5E_NOTFOUND_g, align 8
  %12 = call i32 (ptr, ptr, i32, i64, i64, ptr, ...) @H5E_printf_stack(ptr noundef nonnull @.str.3, ptr noundef nonnull @__func__.H5A__get_ainfo, i32 noundef 1946, i64 noundef %10, i64 noundef %11, ptr noundef nonnull @.str.68) #13
  br label %.thread

13:                                               ; preds = %3
  %.not = icmp eq i32 %7, 0
  br i1 %.not, label %.thread, label %14

14:                                               ; preds = %13
  %15 = call ptr @H5O_msg_read_oh(ptr noundef %0, ptr noundef nonnull %1, i32 noundef 21, ptr noundef %2) #13
  %16 = icmp eq ptr %15, null
  br i1 %16, label %17, label %21

17:                                               ; preds = %14
  %18 = load i64, ptr @H5E_ATTR_g, align 8
  %19 = load i64, ptr @H5E_CANTGET_g, align 8
  %20 = call i32 (ptr, ptr, i32, i64, i64, ptr, ...) @H5E_printf_stack(ptr noundef nonnull @.str.3, ptr noundef nonnull @__func__.H5A__get_ainfo, i32 noundef 1950, i64 noundef %18, i64 noundef %19, ptr noundef nonnull @.str.69) #13
  br label %.thread

21:                                               ; preds = %14
  %22 = getelementptr inbounds i8, ptr %2, i64 16
  %23 = load i64, ptr %22, align 8
  %24 = icmp eq i64 %23, -1
  br i1 %24, label %25, label %.thread

25:                                               ; preds = %21
  %26 = getelementptr inbounds i8, ptr %2, i64 24
  %27 = load i64, ptr %26, align 8
  %.not25 = icmp eq i64 %27, -1
  br i1 %.not25, label %44, label %28

28:                                               ; preds = %25
  %29 = getelementptr inbounds i8, ptr %2, i64 32
  %30 = load i64, ptr %29, align 8
  %31 = call ptr @H5B2_open(ptr noundef %0, i64 noundef %30, ptr noundef null) #13
  %32 = icmp eq ptr %31, null
  br i1 %32, label %33, label %37

33:                                               ; preds = %28
  %34 = load i64, ptr @H5E_ATTR_g, align 8
  %35 = load i64, ptr @H5E_CANTOPENOBJ_g, align 8
  %36 = call i32 (ptr, ptr, i32, i64, i64, ptr, ...) @H5E_printf_stack(ptr noundef nonnull @.str.3, ptr noundef nonnull @__func__.H5A__get_ainfo, i32 noundef 1958, i64 noundef %34, i64 noundef %35, ptr noundef nonnull @.str.61) #13
  br label %.thread

37:                                               ; preds = %28
  %38 = call i32 @H5B2_get_nrec(ptr noundef nonnull %31, ptr noundef nonnull %22) #13
  %39 = icmp slt i32 %38, 0
  br i1 %39, label %40, label %47

40:                                               ; preds = %37
  %41 = load i64, ptr @H5E_ATTR_g, align 8
  %42 = load i64, ptr @H5E_CANTGET_g, align 8
  %43 = call i32 (ptr, ptr, i32, i64, i64, ptr, ...) @H5E_printf_stack(ptr noundef nonnull @.str.3, ptr noundef nonnull @__func__.H5A__get_ainfo, i32 noundef 1963, i64 noundef %41, i64 noundef %42, ptr noundef nonnull @.str.62) #13
  br label %47

44:                                               ; preds = %25
  %45 = getelementptr inbounds i8, ptr %1, i64 368
  %46 = load i64, ptr %45, align 8
  store i64 %46, ptr %22, align 8
  br label %.thread

47:                                               ; preds = %40, %37
  %.0 = phi i32 [ -1, %40 ], [ %7, %37 ]
  %48 = call i32 @H5B2_close(ptr noundef nonnull %31) #13
  %49 = icmp slt i32 %48, 0
  br i1 %49, label %50, label %.thread

50:                                               ; preds = %47
  %51 = load i64, ptr @H5E_ATTR_g, align 8
  %52 = load i64, ptr @H5E_CLOSEERROR_g, align 8
  %53 = call i32 (ptr, ptr, i32, i64, i64, ptr, ...) @H5E_printf_stack(ptr noundef nonnull @.str.3, ptr noundef nonnull @__func__.H5A__get_ainfo, i32 noundef 1974, i64 noundef %51, i64 noundef %52, ptr noundef nonnull @.str.63) #13
  br label %.thread

.thread:                                          ; preds = %13, %21, %44, %33, %17, %9, %50, %47
  %.1 = phi i32 [ -1, %50 ], [ %.0, %47 ], [ 0, %13 ], [ %7, %21 ], [ %7, %44 ], [ -1, %33 ], [ -1, %17 ], [ -1, %9 ]
  %54 = load i64, ptr %4, align 8
  call void @H5AC_tag(i64 noundef %54, ptr noundef null) #13
  ret i32 %.1
}